target datalayout = "e-m:e-p270:32:32-p271:32:32-p272:64:64-i64:64-i128:128-f80:128-n8:16:32:64-S128"
target triple = "x86_64-pc-linux-gnu"

%struct.termios = type { i32, i32, i32, i32, i8, [32 x i8], i32, i32 }
%struct.uv_tty_s = type { ptr, ptr, i32, ptr, %struct.uv__queue, %union.anon, ptr, i32, i64, ptr, ptr, ptr, ptr, %struct.uv__io_s, %struct.uv__queue, %struct.uv__queue, ptr, i32, i32, ptr, %struct.termios, i32 }
%union.anon = type { [4 x ptr] }
%struct.uv__io_s = type { ptr, %struct.uv__queue, %struct.uv__queue, i32, i32, i32 }
%struct.uv__queue = type { ptr, ptr }

@termios_spinlock = internal global i32 0, align 4
@orig_termios_fd = internal global i32 -1, align 4
@orig_termios = internal global %struct.termios zeroinitializer, align 4

; Function Attrs: nounwind uwtable
define hidden i32 @uv__tcsetattr(i32 noundef %0, i32 noundef %1, ptr noundef %2) #0 {
  %4 = alloca i32, align 4
  %5 = alloca i32, align 4
  %6 = alloca i32, align 4
  %7 = alloca ptr, align 8
  %8 = alloca i32, align 4
  %9 = alloca i32, align 4
  store i32 %0, ptr %5, align 4
  store i32 %1, ptr %6, align 4
  store ptr %2, ptr %7, align 8
  call void @llvm.lifetime.start.p0(i64 4, ptr %8) #6
  br label %10

10:                                               ; preds = %22, %3
  %11 = load i32, ptr %5, align 4
  %12 = load i32, ptr %6, align 4
  %13 = load ptr, ptr %7, align 8
  %14 = call i32 @tcsetattr(i32 noundef %11, i32 noundef %12, ptr noundef %13) #6
  store i32 %14, ptr %8, align 4
  br label %15

15:                                               ; preds = %10
  %16 = load i32, ptr %8, align 4
  %17 = icmp eq i32 %16, -1
  br i1 %17, label %18, label %22

18:                                               ; preds = %15
  %19 = call ptr @__errno_location() #7
  %20 = load i32, ptr %19, align 4
  %21 = icmp eq i32 %20, 4
  br label %22

22:                                               ; preds = %18, %15
  %23 = phi i1 [ false, %15 ], [ %21, %18 ]
  br i1 %23, label %10, label %24

24:                                               ; preds = %22
  %25 = load i32, ptr %8, align 4
  %26 = icmp eq i32 %25, -1
  br i1 %26, label %27, label %31

27:                                               ; preds = %24
  %28 = call ptr @__errno_location() #7
  %29 = load i32, ptr %28, align 4
  %30 = sub nsw i32 0, %29
  store i32 %30, ptr %4, align 4
  store i32 1, ptr %9, align 4
  br label %32

31:                                               ; preds = %24
  store i32 0, ptr %4, align 4
  store i32 1, ptr %9, align 4
  br label %32

32:                                               ; preds = %31, %27
  call void @llvm.lifetime.end.p0(i64 4, ptr %8) #6
  %33 = load i32, ptr %4, align 4
  ret i32 %33
}

; Function Attrs: nounwind uwtable
define internal void @uv__tty_make_raw(ptr noundef %0) #0 {
  %2 = alloca ptr, align 8
  store ptr %0, ptr %2, align 8
  %3 = load ptr, ptr %2, align 8
  call void @cfmakeraw(ptr noundef %3) #6
  ret void
}

; Function Attrs: nounwind uwtable
define dso_local i32 @uv_tty_set_mode(ptr noundef %0, i32 noundef %1) #0 {
  %3 = alloca i32, align 4
  %4 = alloca ptr, align 8
  %5 = alloca i32, align 4
  %6 = alloca %struct.termios, align 4
  %7 = alloca i32, align 4
  %8 = alloca i32, align 4
  %9 = alloca i32, align 4
  %10 = alloca i32, align 4
  %11 = alloca i32, align 4
  %12 = alloca i8, align 1
  %13 = alloca i32, align 4
  store ptr %0, ptr %4, align 8
  store i32 %1, ptr %5, align 4
  call void @llvm.lifetime.start.p0(i64 60, ptr %6) #6
  call void @llvm.lifetime.start.p0(i64 4, ptr %7) #6
  call void @llvm.lifetime.start.p0(i64 4, ptr %8) #6
  call void @llvm.lifetime.start.p0(i64 4, ptr %9) #6
  %14 = load ptr, ptr %4, align 8
  %15 = getelementptr inbounds nuw %struct.uv_tty_s, ptr %14, i32 0, i32 21
  %16 = load i32, ptr %15, align 4
  %17 = load i32, ptr %5, align 4
  %18 = icmp eq i32 %16, %17
  br i1 %18, label %19, label %20

19:                                               ; preds = %2
  store i32 0, ptr %3, align 4
  store i32 1, ptr %10, align 4
  br label %110

20:                                               ; preds = %2
  %21 = load ptr, ptr %4, align 8
  %22 = getelementptr inbounds nuw %struct.uv_tty_s, ptr %21, i32 0, i32 13
  %23 = getelementptr inbounds nuw %struct.uv__io_s, ptr %22, i32 0, i32 5
  %24 = load i32, ptr %23, align 8
  store i32 %24, ptr %8, align 4
  %25 = load ptr, ptr %4, align 8
  %26 = getelementptr inbounds nuw %struct.uv_tty_s, ptr %25, i32 0, i32 21
  %27 = load i32, ptr %26, align 4
  %28 = icmp eq i32 %27, 0
  br i1 %28, label %29, label %77

29:                                               ; preds = %20
  %30 = load i32, ptr %5, align 4
  %31 = icmp ne i32 %30, 0
  br i1 %31, label %32, label %77

32:                                               ; preds = %29
  br label %33

33:                                               ; preds = %45, %32
  %34 = load i32, ptr %8, align 4
  %35 = load ptr, ptr %4, align 8
  %36 = getelementptr inbounds nuw %struct.uv_tty_s, ptr %35, i32 0, i32 20
  %37 = call i32 @tcgetattr(i32 noundef %34, ptr noundef %36) #6
  store i32 %37, ptr %9, align 4
  br label %38

38:                                               ; preds = %33
  %39 = load i32, ptr %9, align 4
  %40 = icmp eq i32 %39, -1
  br i1 %40, label %41, label %45

41:                                               ; preds = %38
  %42 = call ptr @__errno_location() #7
  %43 = load i32, ptr %42, align 4
  %44 = icmp eq i32 %43, 4
  br label %45

45:                                               ; preds = %41, %38
  %46 = phi i1 [ false, %38 ], [ %44, %41 ]
  br i1 %46, label %33, label %47

47:                                               ; preds = %45
  %48 = load i32, ptr %9, align 4
  %49 = icmp eq i32 %48, -1
  br i1 %49, label %50, label %54

50:                                               ; preds = %47
  %51 = call ptr @__errno_location() #7
  %52 = load i32, ptr %51, align 4
  %53 = sub nsw i32 0, %52
  store i32 %53, ptr %3, align 4
  store i32 1, ptr %10, align 4
  br label %110

54:                                               ; preds = %47
  br label %55

55:                                               ; preds = %63, %54
  store i32 0, ptr %7, align 4
  br label %56

56:                                               ; preds = %55
  store i32 1, ptr %11, align 4
  %57 = load i32, ptr %7, align 4
  %58 = load i32, ptr %11, align 4
  %59 = cmpxchg ptr @termios_spinlock, i32 %57, i32 %58 seq_cst seq_cst, align 4
  %60 = extractvalue { i32, i1 } %59, 0
  %61 = extractvalue { i32, i1 } %59, 1
  br i1 %61, label %63, label %62

62:                                               ; preds = %56
  store i32 %60, ptr %7, align 4
  br label %63

63:                                               ; preds = %62, %56
  %64 = zext i1 %61 to i8
  store i8 %64, ptr %12, align 1
  %65 = load i8, ptr %12, align 1, !range !4, !noundef !5
  %66 = trunc i8 %65 to i1
  %67 = xor i1 %66, true
  br i1 %67, label %55, label %68

68:                                               ; preds = %63
  %69 = load i32, ptr @orig_termios_fd, align 4
  %70 = icmp eq i32 %69, -1
  br i1 %70, label %71, label %75

71:                                               ; preds = %68
  %72 = load ptr, ptr %4, align 8
  %73 = getelementptr inbounds nuw %struct.uv_tty_s, ptr %72, i32 0, i32 20
  call void @llvm.memcpy.p0.p0.i64(ptr align 4 @orig_termios, ptr align 8 %73, i64 60, i1 false)
  %74 = load i32, ptr %8, align 4
  store i32 %74, ptr @orig_termios_fd, align 4
  br label %75

75:                                               ; preds = %71, %68
  store i32 0, ptr %13, align 4
  %76 = load i32, ptr %13, align 4
  store atomic i32 %76, ptr @termios_spinlock seq_cst, align 4
  br label %77

77:                                               ; preds = %75, %29, %20
  %78 = load ptr, ptr %4, align 8
  %79 = getelementptr inbounds nuw %struct.uv_tty_s, ptr %78, i32 0, i32 20
  call void @llvm.memcpy.p0.p0.i64(ptr align 4 %6, ptr align 8 %79, i64 60, i1 false)
  %80 = load i32, ptr %5, align 4
  switch i32 %80, label %99 [
    i32 0, label %99
    i32 1, label %81
    i32 2, label %98
  ]

81:                                               ; preds = %77
  %82 = getelementptr inbounds nuw %struct.termios, ptr %6, i32 0, i32 0
  %83 = load i32, ptr %82, align 4
  %84 = and i32 %83, -1331
  store i32 %84, ptr %82, align 4
  %85 = getelementptr inbounds nuw %struct.termios, ptr %6, i32 0, i32 1
  %86 = load i32, ptr %85, align 4
  %87 = or i32 %86, 4
  store i32 %87, ptr %85, align 4
  %88 = getelementptr inbounds nuw %struct.termios, ptr %6, i32 0, i32 2
  %89 = load i32, ptr %88, align 4
  %90 = or i32 %89, 48
  store i32 %90, ptr %88, align 4
  %91 = getelementptr inbounds nuw %struct.termios, ptr %6, i32 0, i32 3
  %92 = load i32, ptr %91, align 4
  %93 = and i32 %92, -32780
  store i32 %93, ptr %91, align 4
  %94 = getelementptr inbounds nuw %struct.termios, ptr %6, i32 0, i32 5
  %95 = getelementptr inbounds [32 x i8], ptr %94, i64 0, i64 6
  store i8 1, ptr %95, align 1
  %96 = getelementptr inbounds nuw %struct.termios, ptr %6, i32 0, i32 5
  %97 = getelementptr inbounds [32 x i8], ptr %96, i64 0, i64 5
  store i8 0, ptr %97, align 1
  br label %99

98:                                               ; preds = %77
  call void @uv__tty_make_raw(ptr noundef %6)
  br label %99

99:                                               ; preds = %77, %98, %81, %77
  %100 = load i32, ptr %8, align 4
  %101 = call i32 @uv__tcsetattr(i32 noundef %100, i32 noundef 1, ptr noundef %6)
  store i32 %101, ptr %9, align 4
  %102 = load i32, ptr %9, align 4
  %103 = icmp eq i32 %102, 0
  br i1 %103, label %104, label %108

104:                                              ; preds = %99
  %105 = load i32, ptr %5, align 4
  %106 = load ptr, ptr %4, align 8
  %107 = getelementptr inbounds nuw %struct.uv_tty_s, ptr %106, i32 0, i32 21
  store i32 %105, ptr %107, align 4
  br label %108

108:                                              ; preds = %104, %99
  %109 = load i32, ptr %9, align 4
  store i32 %109, ptr %3, align 4
  store i32 1, ptr %10, align 4
  br label %110

110:                                              ; preds = %108, %50, %19
  call void @llvm.lifetime.end.p0(i64 4, ptr %9) #6
  call void @llvm.lifetime.end.p0(i64 4, ptr %8) #6
  call void @llvm.lifetime.end.p0(i64 4, ptr %7) #6
  call void @llvm.lifetime.end.p0(i64 60, ptr %6) #6
  %111 = load i32, ptr %3, align 4
  ret i32 %111
}