; Function Attrs: nounwind uwtable
define dso_local range(i32 -2147483647, -2147483648) i32 @uv_tty_set_mode(ptr noundef %0, i32 noundef %1) local_unnamed_addr #0 {
  %3 = alloca %struct.termios, align 4
  call void @llvm.lifetime.start.p0(i64 60, ptr nonnull %3) #8
  %4 = getelementptr inbounds nuw i8, ptr %0, i64 308
  %5 = load i32, ptr %4, align 4
  %6 = icmp eq i32 %5, %1
  br i1 %6, label %54, label %7

7:                                                ; preds = %2
  %8 = getelementptr inbounds nuw i8, ptr %0, i64 184
  %9 = load i32, ptr %8, align 8
  %10 = icmp eq i32 %5, 0
  %11 = icmp ne i32 %1, 0
  %or.cond = and i1 %11, %10
  br i1 %or.cond, label %.preheader, label %28

.preheader:                                       ; preds = %7
  %12 = getelementptr inbounds nuw i8, ptr %0, i64 248
  br label %13

13:                                               ; preds = %.preheader, %16
  %14 = tail call i32 @tcgetattr(i32 noundef %9, ptr noundef nonnull %12) #8
  %15 = icmp eq i32 %14, -1
  br i1 %15, label %16, label %.critedge25

16:                                               ; preds = %13
  %17 = tail call ptr @__errno_location() #9
  %18 = load i32, ptr %17, align 4
  %19 = icmp eq i32 %18, 4
  br i1 %19, label %13, label %.critedge

.critedge:                                        ; preds = %16
  %20 = sub nsw i32 0, %18
  br label %54

.critedge25:                                      ; preds = %13, %.critedge25
  %21 = cmpxchg ptr @termios_spinlock, i32 0, i32 1 seq_cst seq_cst, align 4
  %22 = extractvalue { i32, i1 } %21, 1
  br i1 %22, label %23, label %.critedge25

23:                                               ; preds = %.critedge25
  %24 = load i32, ptr @orig_termios_fd, align 4
  %25 = icmp eq i32 %24, -1
  br i1 %25, label %26, label %27

26:                                               ; preds = %23
  tail call void @llvm.memcpy.p0.p0.i64(ptr noundef nonnull align 4 dereferenceable(60) @orig_termios, ptr noundef nonnull align 8 dereferenceable(60) %12, i64 60, i1 false)
  store i32 %9, ptr @orig_termios_fd, align 4
  br label %27

27:                                               ; preds = %26, %23
  store atomic i32 0, ptr @termios_spinlock seq_cst, align 4
  br label %28

28:                                               ; preds = %27, %7
  %29 = getelementptr inbounds nuw i8, ptr %0, i64 248
  call void @llvm.memcpy.p0.p0.i64(ptr noundef nonnull align 4 dereferenceable(60) %3, ptr noundef nonnull align 8 dereferenceable(60) %29, i64 60, i1 false)
  switch i32 %1, label %.preheader34 [
    i32 2, label %44
    i32 1, label %30
  ]

30:                                               ; preds = %28
  %31 = load i32, ptr %3, align 4
  %32 = and i32 %31, -1331
  store i32 %32, ptr %3, align 4
  %33 = getelementptr inbounds nuw i8, ptr %3, i64 4
  %34 = load i32, ptr %33, align 4
  %35 = or i32 %34, 4
  store i32 %35, ptr %33, align 4
  %36 = getelementptr inbounds nuw i8, ptr %3, i64 8
  %37 = load i32, ptr %36, align 4
  %38 = or i32 %37, 48
  store i32 %38, ptr %36, align 4
  %39 = getelementptr inbounds nuw i8, ptr %3, i64 12
  %40 = load i32, ptr %39, align 4
  %41 = and i32 %40, -32780
  store i32 %41, ptr %39, align 4
  %42 = getelementptr inbounds nuw i8, ptr %3, i64 23
  store i8 1, ptr %42, align 1
  %43 = getelementptr inbounds nuw i8, ptr %3, i64 22
  store i8 0, ptr %43, align 2
  br label %.preheader34

44:                                               ; preds = %28
  call void @cfmakeraw(ptr noundef nonnull %3) #8
  br label %.preheader34

.preheader34:                                     ; preds = %44, %30, %28
  br label %45

45:                                               ; preds = %.preheader34, %48
  %46 = call i32 @tcsetattr(i32 noundef %9, i32 noundef 1, ptr noundef nonnull %3) #8
  %47 = icmp eq i32 %46, -1
  br i1 %47, label %48, label %uv__tcsetattr.exit.thread

48:                                               ; preds = %45
  %49 = tail call ptr @__errno_location() #9
  %50 = load i32, ptr %49, align 4
  %51 = icmp eq i32 %50, 4
  br i1 %51, label %45, label %uv__tcsetattr.exit

uv__tcsetattr.exit:                               ; preds = %48
  %52 = sub nsw i32 0, %50
  %53 = icmp eq i32 %50, 0
  br i1 %53, label %uv__tcsetattr.exit.thread, label %54

uv__tcsetattr.exit.thread:                        ; preds = %45, %uv__tcsetattr.exit
  store i32 %1, ptr %4, align 4
  br label %54

54:                                               ; preds = %uv__tcsetattr.exit, %uv__tcsetattr.exit.thread, %2, %.critedge
  %.0 = phi i32 [ %20, %.critedge ], [ 0, %2 ], [ 0, %uv__tcsetattr.exit.thread ], [ %52, %uv__tcsetattr.exit ]
  call void @llvm.lifetime.end.p0(i64 60, ptr nonnull %3) #8
  ret i32 %.0
}